target datalayout = "e-m:e-p270:32:32-p271:32:32-p272:64:64-i64:64-i128:128-f80:128-n8:16:32:64-S128"
target triple = "x86_64-pc-linux-gnu"

%struct.FFHWAccel = type { %struct.AVHWAccel, ptr, ptr, ptr, ptr, ptr, i32, i32, i32, ptr, ptr, ptr, ptr, ptr, ptr }
%struct.AVHWAccel = type { ptr, i32, i32, i32, i32 }
%struct.AVCodecContext = type { ptr, i32, i32, ptr, i32, i32, ptr, ptr, ptr, i64, i32, i32, ptr, i32, %struct.AVRational, %struct.AVRational, %struct.AVRational, i32, i32, i32, i32, i32, %struct.AVRational, i32, i32, i32, i32, i32, i32, i32, i32, i32, i32, i32, ptr, ptr, i32, float, float, float, float, float, float, float, float, float, i32, i32, i32, i32, i32, i32, i32, i32, i32, i32, i32, i32, ptr, ptr, ptr, i32, i32, i32, i32, i32, i32, i32, i32, i32, i32, %struct.AVChannelLayout, i32, i32, i32, i32, i32, i32, i32, i32, ptr, i32, i32, i32, float, float, i32, i32, i32, i32, i32, ptr, i64, i64, float, float, i32, i32, ptr, ptr, i32, i32, i32, i32, i32, ptr, ptr, ptr, ptr, i32, i32, [8 x i64], i32, i32, i32, i32, i32, i32, i32, ptr, ptr, i32, i32, i32, i32, i32, i32, i32, i32, i32, i32, ptr, ptr, i32, i32, ptr, ptr, ptr, ptr, i32, i32, i64, i32, i32, i64, ptr, i64, ptr, i32, ptr, i32 }
%struct.AVRational = type { i32, i32 }
%struct.AVChannelLayout = type { i32, i32, %union.anon, ptr }
%union.anon = type { i64 }
%struct.VP8Context = type { ptr, ptr, i32, i32, [4 x ptr], [4 x ptr], ptr, ptr, i16, i16, i64, i64, i8, i8, i8, i8, %struct.VP8mvbounds, [4 x i8], [3 x i32], %struct.anon, %struct.anon.0, ptr, ptr, [4 x i8], [4 x %struct.anon.1], %struct.anon.2, %struct.anon.3, ptr, ptr, %struct.VPXRangeCoder, %struct.anon.4, i32, [2 x %struct.anon.5], ptr, i32, i32, i32, i32, i32, i32, [8 x %struct.VPXRangeCoder], [8 x i32], %struct.VideoDSPContext, %struct.VP8DSPContext, %struct.H264PredContext, [3 x [3 x [3 x ptr]]], [5 x %struct.VP8Frame], i8, i8, i32, i32, ptr, ptr, [2 x [2 x i16]], [4 x i8], [4 x i8], [4 x [3 x i8]], [4 x [4 x i8]] }
%struct.VP8mvbounds = type { %struct.VP8intmv, %struct.VP8intmv }
%struct.VP8intmv = type { i32, i32 }
%struct.anon = type { i8, i8, i8, i8, [4 x i8], [4 x i8] }
%struct.anon.0 = type { i8, i8, i8 }
%struct.anon.1 = type { [2 x i16], [2 x i16], [2 x i16] }
%struct.anon.2 = type { i32, i32, i32, i32, i32, i32 }
%struct.anon.3 = type { i8, i8, [8 x i8], [4 x i8] }
%struct.VPXRangeCoder = type { i32, i32, ptr, ptr, i32, i32 }
%struct.anon.4 = type { ptr, i32, i32, i32 }
%struct.anon.5 = type { [3 x i8], i8, i8, i8, i8, [4 x i8], [3 x i8], [4 x [16 x [3 x [11 x i8]]]], [2 x [19 x i8]], [16 x i8] }
%struct.VideoDSPContext = type { ptr, ptr }
%struct.VP8DSPContext = type { ptr, ptr, ptr, ptr, ptr, ptr, ptr, ptr, ptr, ptr, ptr, ptr, ptr, ptr, ptr, ptr, [3 x [3 x [3 x ptr]]], [3 x [3 x [3 x ptr]]] }
%struct.H264PredContext = type { [15 x ptr], [12 x ptr], [11 x ptr], [9 x ptr], [2 x ptr], [2 x ptr], [2 x ptr], [3 x ptr], [3 x ptr] }
%struct.VP8Frame = type { %struct.ProgressFrame, ptr, ptr }
%struct.ProgressFrame = type { ptr, ptr }

; Function Attrs: inlinehint nounwind uwtable
define internal ptr @ffhwaccel(ptr noundef %0) #6 {
  %2 = alloca ptr, align 8
  store ptr %0, ptr %2, align 8, !tbaa !130
  %3 = load ptr, ptr %2, align 8, !tbaa !130
  ret ptr %3
}

; Function Attrs: nounwind uwtable
define internal void @vp8_release_frame(ptr noundef %0) #1 {
  %2 = alloca ptr, align 8
  store ptr %0, ptr %2, align 8, !tbaa !43
  %3 = load ptr, ptr %2, align 8, !tbaa !43
  %4 = getelementptr inbounds nuw %struct.VP8Frame, ptr %3, i32 0, i32 1
  call void @av_refstruct_unref(ptr noundef %4)
  %5 = load ptr, ptr %2, align 8, !tbaa !43
  %6 = getelementptr inbounds nuw %struct.VP8Frame, ptr %5, i32 0, i32 2
  call void @av_refstruct_unref(ptr noundef %6)
  %7 = load ptr, ptr %2, align 8, !tbaa !43
  %8 = getelementptr inbounds nuw %struct.VP8Frame, ptr %7, i32 0, i32 0
  call void @ff_progress_frame_unref(ptr noundef %8)
  ret void
}

; Function Attrs: cold nounwind optsize uwtable
define internal void @vp8_decode_flush_impl(ptr noundef %0, i32 noundef %1) #0 {
  %3 = alloca ptr, align 8
  %4 = alloca i32, align 4
  %5 = alloca ptr, align 8
  %6 = alloca i32, align 4
  store ptr %0, ptr %3, align 8, !tbaa !4
  store i32 %1, ptr %4, align 4, !tbaa !9
  call void @llvm.lifetime.start.p0(i64 8, ptr %5) #12
  %7 = load ptr, ptr %3, align 8, !tbaa !4
  %8 = getelementptr inbounds nuw %struct.AVCodecContext, ptr %7, i32 0, i32 6
  %9 = load ptr, ptr %8, align 8, !tbaa !11
  store ptr %9, ptr %5, align 8, !tbaa !30
  call void @llvm.lifetime.start.p0(i64 4, ptr %6) #12
  store i32 0, ptr %6, align 4, !tbaa !9
  br label %10

10:                                               ; preds = %20, %2
  %11 = load i32, ptr %6, align 4, !tbaa !9
  %12 = sext i32 %11 to i64
  %13 = icmp ult i64 %12, 5
  br i1 %13, label %14, label %23

14:                                               ; preds = %10
  %15 = load ptr, ptr %5, align 8, !tbaa !30
  %16 = getelementptr inbounds nuw %struct.VP8Context, ptr %15, i32 0, i32 46
  %17 = load i32, ptr %6, align 4, !tbaa !9
  %18 = sext i32 %17 to i64
  %19 = getelementptr inbounds [5 x %struct.VP8Frame], ptr %16, i64 0, i64 %18
  call void @vp8_release_frame(ptr noundef %19)
  br label %20

20:                                               ; preds = %14
  %21 = load i32, ptr %6, align 4, !tbaa !9
  %22 = add nsw i32 %21, 1
  store i32 %22, ptr %6, align 4, !tbaa !9
  br label %10, !llvm.loop !32

23:                                               ; preds = %10
  %24 = load ptr, ptr %5, align 8, !tbaa !30
  %25 = getelementptr inbounds nuw %struct.VP8Context, ptr %24, i32 0, i32 4
  %26 = getelementptr inbounds [4 x ptr], ptr %25, i64 0, i64 0
  call void @llvm.memset.p0.i64(ptr align 8 %26, i8 0, i64 32, i1 false)
  %27 = load i32, ptr %4, align 4, !tbaa !9
  %28 = icmp ne i32 %27, 0
  br i1 %28, label %29, label %31

29:                                               ; preds = %23
  %30 = load ptr, ptr %5, align 8, !tbaa !30
  call void @free_buffers(ptr noundef %30)
  br label %31

31:                                               ; preds = %29, %23
  %32 = load ptr, ptr %3, align 8, !tbaa !4
  %33 = getelementptr inbounds nuw %struct.AVCodecContext, ptr %32, i32 0, i32 105
  %34 = load ptr, ptr %33, align 8, !tbaa !34
  %35 = icmp ne ptr %34, null
  br i1 %35, label %36, label %52

36:                                               ; preds = %31
  %37 = load ptr, ptr %3, align 8, !tbaa !4
  %38 = getelementptr inbounds nuw %struct.AVCodecContext, ptr %37, i32 0, i32 105
  %39 = load ptr, ptr %38, align 8, !tbaa !34
  %40 = call ptr @ffhwaccel(ptr noundef %39)
  %41 = getelementptr inbounds nuw %struct.FFHWAccel, ptr %40, i32 0, i32 14
  %42 = load ptr, ptr %41, align 8, !tbaa !35
  %43 = icmp ne ptr %42, null
  br i1 %43, label %44, label %52

44:                                               ; preds = %36
  %45 = load ptr, ptr %3, align 8, !tbaa !4
  %46 = getelementptr inbounds nuw %struct.AVCodecContext, ptr %45, i32 0, i32 105
  %47 = load ptr, ptr %46, align 8, !tbaa !34
  %48 = call ptr @ffhwaccel(ptr noundef %47)
  %49 = getelementptr inbounds nuw %struct.FFHWAccel, ptr %48, i32 0, i32 14
  %50 = load ptr, ptr %49, align 8, !tbaa !35
  %51 = load ptr, ptr %3, align 8, !tbaa !4
  call void %50(ptr noundef %51)
  br label %52

52:                                               ; preds = %44, %36, %31
  call void @llvm.lifetime.end.p0(i64 4, ptr %6) #12
  call void @llvm.lifetime.end.p0(i64 8, ptr %5) #12
  ret void
}