; Function Attrs: cold nounwind optsize uwtable
define internal fastcc void @vp8_decode_flush_impl(ptr noundef %0, i32 noundef range(i32 0, 2) %1) unnamed_addr #0 {
  %3 = getelementptr inbounds nuw i8, ptr %0, i64 32
  %4 = load ptr, ptr %3, align 8, !tbaa !4
  %5 = getelementptr inbounds nuw i8, ptr %4, i64 6320
  br label %6

6:                                                ; preds = %2, %6
  %indvars.iv = phi i64 [ 0, %2 ], [ %indvars.iv.next, %6 ]
  %7 = getelementptr inbounds nuw [5 x %struct.VP8Frame], ptr %5, i64 0, i64 %indvars.iv
  %8 = getelementptr inbounds nuw i8, ptr %7, i64 16
  tail call void @av_refstruct_unref(ptr noundef nonnull %8) #12
  %9 = getelementptr inbounds nuw i8, ptr %7, i64 24
  tail call void @av_refstruct_unref(ptr noundef nonnull %9) #12
  tail call void @ff_progress_frame_unref(ptr noundef nonnull %7) #12
  %indvars.iv.next = add nuw nsw i64 %indvars.iv, 1
  %exitcond.not = icmp eq i64 %indvars.iv.next, 5
  br i1 %exitcond.not, label %10, label %6, !llvm.loop !27

10:                                               ; preds = %6
  %11 = getelementptr inbounds nuw i8, ptr %4, i64 24
  tail call void @llvm.memset.p0.i64(ptr noundef nonnull align 8 dereferenceable(32) %11, i8 0, i64 32, i1 false)
  %.not = icmp eq i32 %1, 0
  br i1 %.not, label %13, label %12

12:                                               ; preds = %10
  tail call fastcc void @free_buffers(ptr noundef nonnull %4)
  br label %13

13:                                               ; preds = %12, %10
  %14 = getelementptr inbounds nuw i8, ptr %0, i64 536
  %15 = load ptr, ptr %14, align 8, !tbaa !29
  %.not13 = icmp eq ptr %15, null
  br i1 %.not13, label %20, label %16

16:                                               ; preds = %13
  %17 = getelementptr inbounds nuw i8, ptr %15, i64 120
  %18 = load ptr, ptr %17, align 8, !tbaa !30
  %.not14 = icmp eq ptr %18, null
  br i1 %.not14, label %20, label %19

19:                                               ; preds = %16
  tail call void %18(ptr noundef nonnull %0) #12
  br label %20

20:                                               ; preds = %19, %16, %13
  ret void
}